; Function Attrs: nounwind uwtable
define internal fastcc noundef ptr @_readXmlExpr() unnamed_addr #0 {
  %1 = alloca i32, align 4
  %2 = tail call noundef ptr @palloc0(i64 noundef 64) #10
  store i32 41, ptr %2, align 4
  call void @llvm.lifetime.start.p0(i64 4, ptr nonnull %1) #10
  %3 = call ptr @pg_strtok(ptr noundef nonnull %1) #10
  %4 = call ptr @pg_strtok(ptr noundef nonnull %1) #10
  %5 = call i64 @strtol(ptr noundef nonnull captures(none) %4, ptr noundef null, i32 noundef 10) #10
  %6 = trunc i64 %5 to i32
  %7 = getelementptr inbounds nuw i8, ptr %2, i64 4
  store i32 %6, ptr %7, align 4
  %8 = call ptr @pg_strtok(ptr noundef nonnull %1) #10
  %9 = call ptr @pg_strtok(ptr noundef nonnull %1) #10
  %10 = load i32, ptr %1, align 4
  switch i32 %10, label %20 [
    i32 0, label %nullable_string.exit
    i32 2, label %11
  ]

11:                                               ; preds = %0
  %12 = load i8, ptr %9, align 1
  %13 = icmp eq i8 %12, 34
  br i1 %13, label %14, label %20

14:                                               ; preds = %11
  %15 = getelementptr inbounds nuw i8, ptr %9, i64 1
  %16 = load i8, ptr %15, align 1
  %17 = icmp eq i8 %16, 34
  br i1 %17, label %18, label %20

18:                                               ; preds = %14
  %19 = call ptr @pstrdup(ptr noundef nonnull @.str.326) #10
  br label %nullable_string.exit

20:                                               ; preds = %14, %11, %0
  %21 = call ptr @debackslash(ptr noundef %9, i32 noundef %10) #10
  br label %nullable_string.exit

nullable_string.exit:                             ; preds = %0, %18, %20
  %.0.i = phi ptr [ %19, %18 ], [ %21, %20 ], [ null, %0 ]
  %22 = getelementptr inbounds nuw i8, ptr %2, i64 8
  store ptr %.0.i, ptr %22, align 8
  %23 = call ptr @pg_strtok(ptr noundef nonnull %1) #10
  %24 = call ptr @nodeRead(ptr noundef null, i32 noundef 0) #10
  %25 = getelementptr inbounds nuw i8, ptr %2, i64 16
  store ptr %24, ptr %25, align 8
  %26 = call ptr @pg_strtok(ptr noundef nonnull %1) #10
  %27 = call ptr @nodeRead(ptr noundef null, i32 noundef 0) #10
  %28 = getelementptr inbounds nuw i8, ptr %2, i64 24
  store ptr %27, ptr %28, align 8
  %29 = call ptr @pg_strtok(ptr noundef nonnull %1) #10
  %30 = call ptr @nodeRead(ptr noundef null, i32 noundef 0) #10
  %31 = getelementptr inbounds nuw i8, ptr %2, i64 32
  store ptr %30, ptr %31, align 8
  %32 = call ptr @pg_strtok(ptr noundef nonnull %1) #10
  %33 = call ptr @pg_strtok(ptr noundef nonnull %1) #10
  %34 = call i64 @strtol(ptr noundef nonnull captures(none) %33, ptr noundef null, i32 noundef 10) #10
  %35 = trunc i64 %34 to i32
  %36 = getelementptr inbounds nuw i8, ptr %2, i64 40
  store i32 %35, ptr %36, align 8
  %37 = call ptr @pg_strtok(ptr noundef nonnull %1) #10
  %38 = call ptr @pg_strtok(ptr noundef nonnull %1) #10
  %39 = load i8, ptr %38, align 1
  %40 = icmp eq i8 %39, 116
  %41 = getelementptr inbounds nuw i8, ptr %2, i64 44
  %42 = zext i1 %40 to i8
  store i8 %42, ptr %41, align 4
  %43 = call ptr @pg_strtok(ptr noundef nonnull %1) #10
  %44 = call ptr @pg_strtok(ptr noundef nonnull %1) #10
  %45 = call i64 @strtoul(ptr noundef captures(none) %44, ptr noundef null, i32 noundef 10) #10
  %46 = trunc i64 %45 to i32
  %47 = getelementptr inbounds nuw i8, ptr %2, i64 48
  store i32 %46, ptr %47, align 8
  %48 = call ptr @pg_strtok(ptr noundef nonnull %1) #10
  %49 = call ptr @pg_strtok(ptr noundef nonnull %1) #10
  %50 = call i64 @strtol(ptr noundef nonnull captures(none) %49, ptr noundef null, i32 noundef 10) #10
  %51 = trunc i64 %50 to i32
  %52 = getelementptr inbounds nuw i8, ptr %2, i64 52
  store i32 %51, ptr %52, align 4
  %53 = call ptr @pg_strtok(ptr noundef nonnull %1) #10
  %54 = call ptr @pg_strtok(ptr noundef nonnull %1) #10
  %55 = getelementptr inbounds nuw i8, ptr %2, i64 56
  store i32 -1, ptr %55, align 8
  call void @llvm.lifetime.end.p0(i64 4, ptr nonnull %1) #10
  ret ptr %2
}